; ModuleID = '1/576.c'
source_filename = "1/576.c"
target datalayout = "e-m:e-p270:32:32-p271:32:32-p272:64:64-i64:64-f80:128-n8:16:32:64-S128"
target triple = "x86_64-pc-linux-gnu"

@.str = private unnamed_addr constant [3 x i8] c"%d\00", align 1
@.str.1 = private unnamed_addr constant [4 x i8] c"%d\0A\00", align 1

; Function Attrs: noinline nounwind uwtable
define dso_local i32 @main() #0 {
  %1 = alloca i32, align 4
  %2 = alloca i32, align 4
  %3 = alloca i32, align 4
  %4 = alloca [100 x i32], align 16
  store i32 0, i32* %1, align 4
  %5 = call i32 (i8*, ...) @__isoc99_scanf(i8* getelementptr inbounds ([3 x i8], [3 x i8]* @.str, i64 0, i64 0), i32* %2)
  store i32 0, i32* %3, align 4
  br label %6

6:                                                ; preds = %15, %0
  %7 = load i32, i32* %3, align 4
  %8 = load i32, i32* %2, align 4
  %9 = icmp slt i32 %7, %8
  br i1 %9, label %10, label %18

10:                                               ; preds = %6
  %11 = load i32, i32* %3, align 4
  %12 = sext i32 %11 to i64
  %13 = getelementptr inbounds [100 x i32], [100 x i32]* %4, i64 0, i64 %12
  %14 = call i32 (i8*, ...) @__isoc99_scanf(i8* getelementptr inbounds ([3 x i8], [3 x i8]* @.str, i64 0, i64 0), i32* %13)
  br label %15

15:                                               ; preds = %10
  %16 = load i32, i32* %3, align 4
  %17 = add nsw i32 %16, 1
  store i32 %17, i32* %3, align 4
  br label %6

18:                                               ; preds = %6
  store i32 0, i32* %3, align 4
  br label %19

19:                                               ; preds = %30, %18
  %20 = load i32, i32* %3, align 4
  %21 = load i32, i32* %2, align 4
  %22 = icmp slt i32 %20, %21
  br i1 %22, label %23, label %33

23:                                               ; preds = %19
  %24 = load i32, i32* %3, align 4
  %25 = sext i32 %24 to i64
  %26 = getelementptr inbounds [100 x i32], [100 x i32]* %4, i64 0, i64 %25
  %27 = load i32, i32* %26, align 4
  %28 = call i32 @f(i32 2, i32 %27, i32 1)
  %29 = call i32 (i8*, ...) @printf(i8* getelementptr inbounds ([4 x i8], [4 x i8]* @.str.1, i64 0, i64 0), i32 %28)
  br label %30

30:                                               ; preds = %23
  %31 = load i32, i32* %3, align 4
  %32 = add nsw i32 %31, 1
  store i32 %32, i32* %3, align 4
  br label %19

33:                                               ; preds = %19
  ret i32 0
}

declare dso_local i32 @__isoc99_scanf(i8*, ...) #1

declare dso_local i32 @printf(i8*, ...) #1

; Function Attrs: noinline nounwind uwtable
define dso_local i32 @f(i32 %0, i32 %1, i32 %2) #0 {
  %4 = alloca i32, align 4
  %5 = alloca i32, align 4
  %6 = alloca i32, align 4
  %7 = alloca [100 x [100 x i32]], align 16
  %8 = alloca i32, align 4
  %9 = alloca i32, align 4
  store i32 %0, i32* %4, align 4
  store i32 %1, i32* %5, align 4
  store i32 %2, i32* %6, align 4
  store i32 0, i32* %9, align 4
  %10 = load i32, i32* %4, align 4
  store i32 %10, i32* %8, align 4
  br label %11

11:                                               ; preds = %59, %3
  %12 = load i32, i32* %8, align 4
  %13 = load i32, i32* %8, align 4
  %14 = mul nsw i32 %12, %13
  %15 = load i32, i32* %5, align 4
  %16 = icmp sle i32 %14, %15
  br i1 %16, label %17, label %62

17:                                               ; preds = %11
  store i32 0, i32* %9, align 4
  %18 = load i32, i32* %5, align 4
  %19 = load i32, i32* %8, align 4
  %20 = srem i32 %18, %19
  %21 = icmp eq i32 %20, 0
  br i1 %21, label %22, label %55

22:                                               ; preds = %17
  %23 = load i32, i32* %8, align 4
  %24 = load i32, i32* %9, align 4
  %25 = sext i32 %24 to i64
  %26 = getelementptr inbounds [100 x [100 x i32]], [100 x [100 x i32]]* %7, i64 0, i64 %25
  %27 = getelementptr inbounds [100 x i32], [100 x i32]* %26, i64 0, i64 0
  store i32 %23, i32* %27, align 16
  %28 = load i32, i32* %5, align 4
  %29 = load i32, i32* %8, align 4
  %30 = sdiv i32 %28, %29
  %31 = load i32, i32* %9, align 4
  %32 = sext i32 %31 to i64
  %33 = getelementptr inbounds [100 x [100 x i32]], [100 x [100 x i32]]* %7, i64 0, i64 %32
  %34 = getelementptr inbounds [100 x i32], [100 x i32]* %33, i64 0, i64 1
  store i32 %30, i32* %34, align 4
  %35 = load i32, i32* %9, align 4
  %36 = add nsw i32 %35, 1
  store i32 %36, i32* %9, align 4
  %37 = load i32, i32* %9, align 4
  %38 = icmp ne i32 %37, 0
  br i1 %38, label %39, label %54

39:                                               ; preds = %22
  %40 = load i32, i32* %9, align 4
  %41 = sub nsw i32 %40, 1
  %42 = sext i32 %41 to i64
  %43 = getelementptr inbounds [100 x [100 x i32]], [100 x [100 x i32]]* %7, i64 0, i64 %42
  %44 = getelementptr inbounds [100 x i32], [100 x i32]* %43, i64 0, i64 0
  %45 = load i32, i32* %44, align 16
  %46 = load i32, i32* %9, align 4
  %47 = sub nsw i32 %46, 1
  %48 = sext i32 %47 to i64
  %49 = getelementptr inbounds [100 x [100 x i32]], [100 x [100 x i32]]* %7, i64 0, i64 %48
  %50 = getelementptr inbounds [100 x i32], [100 x i32]* %49, i64 0, i64 1
  %51 = load i32, i32* %50, align 4
  %52 = load i32, i32* %6, align 4
  %53 = call i32 @f(i32 %45, i32 %51, i32 %52)
  store i32 %53, i32* %6, align 4
  br label %54

54:                                               ; preds = %39, %22
  br label %55

55:                                               ; preds = %54, %17
  %56 = load i32, i32* %6, align 4
  %57 = load i32, i32* %9, align 4
  %58 = add nsw i32 %56, %57
  store i32 %58, i32* %6, align 4
  br label %59

59:                                               ; preds = %55
  %60 = load i32, i32* %8, align 4
  %61 = add nsw i32 %60, 1
  store i32 %61, i32* %8, align 4
  br label %11

62:                                               ; preds = %11
  %63 = load i32, i32* %6, align 4
  ret i32 %63
}


!llvm.module.flags = !{!0}
!llvm.ident = !{!1}

!0 = !{i32 1, !"wchar_size", i32 4}
!1 = !{!"clang version 10.0.0-4ubuntu1 "}
